target datalayout = "e-m:e-p270:32:32-p271:32:32-p272:64:64-i64:64-i128:128-f80:128-n8:16:32:64-S128"
target triple = "x86_64-pc-linux-gnu"

%struct.Color = type { i8, i8, i8, i8 }
%struct.Image = type { ptr, i32, i32, i32, i32 }

; Function Attrs: nounwind uwtable
define void @ImageAlphaPremultiply(ptr noundef %0) #0 {
  %2 = alloca ptr, align 8
  %3 = alloca float, align 4
  %4 = alloca ptr, align 8
  %5 = alloca i32, align 4
  %6 = alloca i32, align 4
  store ptr %0, ptr %2, align 8
  %7 = load ptr, ptr %2, align 8
  %8 = getelementptr inbounds nuw %struct.Image, ptr %7, i32 0, i32 0
  %9 = load ptr, ptr %8, align 8
  %10 = icmp eq ptr %9, null
  br i1 %10, label %21, label %11

11:                                               ; preds = %1
  %12 = load ptr, ptr %2, align 8
  %13 = getelementptr inbounds nuw %struct.Image, ptr %12, i32 0, i32 1
  %14 = load i32, ptr %13, align 8
  %15 = icmp eq i32 %14, 0
  br i1 %15, label %21, label %16

16:                                               ; preds = %11
  %17 = load ptr, ptr %2, align 8
  %18 = getelementptr inbounds nuw %struct.Image, ptr %17, i32 0, i32 2
  %19 = load i32, ptr %18, align 4
  %20 = icmp eq i32 %19, 0
  br i1 %20, label %21, label %22

21:                                               ; preds = %16, %11, %1
  br label %143

22:                                               ; preds = %16
  call void @llvm.lifetime.start.p0(i64 4, ptr %3) #19
  store float 0.000000e+00, ptr %3, align 4
  call void @llvm.lifetime.start.p0(i64 8, ptr %4) #19
  %23 = load ptr, ptr %2, align 8
  %24 = call ptr @LoadImageColors(ptr noundef byval(%struct.Image) align 8 %23)
  store ptr %24, ptr %4, align 8
  call void @llvm.lifetime.start.p0(i64 4, ptr %5) #19
  store i32 0, ptr %5, align 4
  br label %25

25:                                               ; preds = %126, %22
  %26 = load i32, ptr %5, align 4
  %27 = load ptr, ptr %2, align 8
  %28 = getelementptr inbounds nuw %struct.Image, ptr %27, i32 0, i32 1
  %29 = load i32, ptr %28, align 8
  %30 = load ptr, ptr %2, align 8
  %31 = getelementptr inbounds nuw %struct.Image, ptr %30, i32 0, i32 2
  %32 = load i32, ptr %31, align 4
  %33 = mul nsw i32 %29, %32
  %34 = icmp slt i32 %26, %33
  br i1 %34, label %36, label %35

35:                                               ; preds = %25
  call void @llvm.lifetime.end.p0(i64 4, ptr %5) #19
  br label %129

36:                                               ; preds = %25
  %37 = load ptr, ptr %4, align 8
  %38 = load i32, ptr %5, align 4
  %39 = sext i32 %38 to i64
  %40 = getelementptr inbounds %struct.Color, ptr %37, i64 %39
  %41 = getelementptr inbounds nuw %struct.Color, ptr %40, i32 0, i32 3
  %42 = load i8, ptr %41, align 1
  %43 = zext i8 %42 to i32
  %44 = icmp eq i32 %43, 0
  br i1 %44, label %45, label %61

45:                                               ; preds = %36
  %46 = load ptr, ptr %4, align 8
  %47 = load i32, ptr %5, align 4
  %48 = sext i32 %47 to i64
  %49 = getelementptr inbounds %struct.Color, ptr %46, i64 %48
  %50 = getelementptr inbounds nuw %struct.Color, ptr %49, i32 0, i32 0
  store i8 0, ptr %50, align 1
  %51 = load ptr, ptr %4, align 8
  %52 = load i32, ptr %5, align 4
  %53 = sext i32 %52 to i64
  %54 = getelementptr inbounds %struct.Color, ptr %51, i64 %53
  %55 = getelementptr inbounds nuw %struct.Color, ptr %54, i32 0, i32 1
  store i8 0, ptr %55, align 1
  %56 = load ptr, ptr %4, align 8
  %57 = load i32, ptr %5, align 4
  %58 = sext i32 %57 to i64
  %59 = getelementptr inbounds %struct.Color, ptr %56, i64 %58
  %60 = getelementptr inbounds nuw %struct.Color, ptr %59, i32 0, i32 2
  store i8 0, ptr %60, align 1
  br label %125

61:                                               ; preds = %36
  %62 = load ptr, ptr %4, align 8
  %63 = load i32, ptr %5, align 4
  %64 = sext i32 %63 to i64
  %65 = getelementptr inbounds %struct.Color, ptr %62, i64 %64
  %66 = getelementptr inbounds nuw %struct.Color, ptr %65, i32 0, i32 3
  %67 = load i8, ptr %66, align 1
  %68 = zext i8 %67 to i32
  %69 = icmp slt i32 %68, 255
  br i1 %69, label %70, label %124

70:                                               ; preds = %61
  %71 = load ptr, ptr %4, align 8
  %72 = load i32, ptr %5, align 4
  %73 = sext i32 %72 to i64
  %74 = getelementptr inbounds %struct.Color, ptr %71, i64 %73
  %75 = getelementptr inbounds nuw %struct.Color, ptr %74, i32 0, i32 3
  %76 = load i8, ptr %75, align 1
  %77 = uitofp i8 %76 to float
  %78 = fdiv float %77, 2.550000e+02
  store float %78, ptr %3, align 4
  %79 = load ptr, ptr %4, align 8
  %80 = load i32, ptr %5, align 4
  %81 = sext i32 %80 to i64
  %82 = getelementptr inbounds %struct.Color, ptr %79, i64 %81
  %83 = getelementptr inbounds nuw %struct.Color, ptr %82, i32 0, i32 0
  %84 = load i8, ptr %83, align 1
  %85 = uitofp i8 %84 to float
  %86 = load float, ptr %3, align 4
  %87 = fmul float %85, %86
  %88 = fptoui float %87 to i8
  %89 = load ptr, ptr %4, align 8
  %90 = load i32, ptr %5, align 4
  %91 = sext i32 %90 to i64
  %92 = getelementptr inbounds %struct.Color, ptr %89, i64 %91
  %93 = getelementptr inbounds nuw %struct.Color, ptr %92, i32 0, i32 0
  store i8 %88, ptr %93, align 1
  %94 = load ptr, ptr %4, align 8
  %95 = load i32, ptr %5, align 4
  %96 = sext i32 %95 to i64
  %97 = getelementptr inbounds %struct.Color, ptr %94, i64 %96
  %98 = getelementptr inbounds nuw %struct.Color, ptr %97, i32 0, i32 1
  %99 = load i8, ptr %98, align 1
  %100 = uitofp i8 %99 to float
  %101 = load float, ptr %3, align 4
  %102 = fmul float %100, %101
  %103 = fptoui float %102 to i8
  %104 = load ptr, ptr %4, align 8
  %105 = load i32, ptr %5, align 4
  %106 = sext i32 %105 to i64
  %107 = getelementptr inbounds %struct.Color, ptr %104, i64 %106
  %108 = getelementptr inbounds nuw %struct.Color, ptr %107, i32 0, i32 1
  store i8 %103, ptr %108, align 1
  %109 = load ptr, ptr %4, align 8
  %110 = load i32, ptr %5, align 4
  %111 = sext i32 %110 to i64
  %112 = getelementptr inbounds %struct.Color, ptr %109, i64 %111
  %113 = getelementptr inbounds nuw %struct.Color, ptr %112, i32 0, i32 2
  %114 = load i8, ptr %113, align 1
  %115 = uitofp i8 %114 to float
  %116 = load float, ptr %3, align 4
  %117 = fmul float %115, %116
  %118 = fptoui float %117 to i8
  %119 = load ptr, ptr %4, align 8
  %120 = load i32, ptr %5, align 4
  %121 = sext i32 %120 to i64
  %122 = getelementptr inbounds %struct.Color, ptr %119, i64 %121
  %123 = getelementptr inbounds nuw %struct.Color, ptr %122, i32 0, i32 2
  store i8 %118, ptr %123, align 1
  br label %124

124:                                              ; preds = %70, %61
  br label %125

125:                                              ; preds = %124, %45
  br label %126

126:                                              ; preds = %125
  %127 = load i32, ptr %5, align 4
  %128 = add nsw i32 %127, 1
  store i32 %128, ptr %5, align 4
  br label %25

129:                                              ; preds = %35
  %130 = load ptr, ptr %2, align 8
  %131 = getelementptr inbounds nuw %struct.Image, ptr %130, i32 0, i32 0
  %132 = load ptr, ptr %131, align 8
  call void @free(ptr noundef %132) #19
  call void @llvm.lifetime.start.p0(i64 4, ptr %6) #19
  %133 = load ptr, ptr %2, align 8
  %134 = getelementptr inbounds nuw %struct.Image, ptr %133, i32 0, i32 4
  %135 = load i32, ptr %134, align 4
  store i32 %135, ptr %6, align 4
  %136 = load ptr, ptr %4, align 8
  %137 = load ptr, ptr %2, align 8
  %138 = getelementptr inbounds nuw %struct.Image, ptr %137, i32 0, i32 0
  store ptr %136, ptr %138, align 8
  %139 = load ptr, ptr %2, align 8
  %140 = getelementptr inbounds nuw %struct.Image, ptr %139, i32 0, i32 4
  store i32 7, ptr %140, align 4
  %141 = load ptr, ptr %2, align 8
  %142 = load i32, ptr %6, align 4
  call void @ImageFormat(ptr noundef %141, i32 noundef %142)
  call void @llvm.lifetime.end.p0(i64 4, ptr %6) #19
  call void @llvm.lifetime.end.p0(i64 8, ptr %4) #19
  call void @llvm.lifetime.end.p0(i64 4, ptr %3) #19
  br label %143

143:                                              ; preds = %129, %21
  ret void
}