; Function Attrs: nounwind uwtable
define void @ImageAlphaPremultiply(ptr noundef %0) local_unnamed_addr #4 {
  %2 = load ptr, ptr %0, align 8
  %3 = icmp eq ptr %2, null
  br i1 %3, label %50, label %4

4:                                                ; preds = %1
  %5 = getelementptr inbounds nuw i8, ptr %0, i64 8
  %6 = load i32, ptr %5, align 8
  %7 = icmp eq i32 %6, 0
  br i1 %7, label %50, label %8

8:                                                ; preds = %4
  %9 = getelementptr inbounds nuw i8, ptr %0, i64 12
  %10 = load i32, ptr %9, align 4
  %11 = icmp eq i32 %10, 0
  br i1 %11, label %50, label %12

12:                                               ; preds = %8
  %13 = tail call ptr @LoadImageColors(ptr noundef nonnull byval(%struct.Image) align 8 %0)
  %14 = load i32, ptr %5, align 8
  %15 = load i32, ptr %9, align 4
  %16 = mul nsw i32 %15, %14
  %17 = icmp sgt i32 %16, 0
  br i1 %17, label %.lr.ph, label %._crit_edge

._crit_edge:                                      ; preds = %44, %12
  %18 = load ptr, ptr %0, align 8
  tail call void @free(ptr noundef %18) #54
  %19 = getelementptr inbounds nuw i8, ptr %0, i64 20
  %20 = load i32, ptr %19, align 4
  store ptr %13, ptr %0, align 8
  store i32 7, ptr %19, align 4
  tail call void @ImageFormat(ptr noundef nonnull %0, i32 noundef %20)
  br label %50

.lr.ph:                                           ; preds = %12, %44
  %indvars.iv = phi i64 [ %indvars.iv.next, %44 ], [ 0, %12 ]
  %21 = getelementptr inbounds nuw %struct.Color, ptr %13, i64 %indvars.iv
  %22 = getelementptr inbounds nuw i8, ptr %21, i64 3
  %23 = load i8, ptr %22, align 1
  switch i8 %23, label %27 [
    i8 0, label %24
    i8 -1, label %44
  ]

24:                                               ; preds = %.lr.ph
  store i8 0, ptr %21, align 1
  %25 = getelementptr inbounds nuw i8, ptr %21, i64 1
  store i8 0, ptr %25, align 1
  %26 = getelementptr inbounds nuw i8, ptr %21, i64 2
  store i8 0, ptr %26, align 1
  br label %44

27:                                               ; preds = %.lr.ph
  %28 = uitofp i8 %23 to float
  %29 = fdiv float %28, 2.550000e+02
  %30 = load i8, ptr %21, align 1
  %31 = uitofp i8 %30 to float
  %32 = fmul float %29, %31
  %33 = fptoui float %32 to i8
  store i8 %33, ptr %21, align 1
  %34 = getelementptr inbounds nuw i8, ptr %21, i64 1
  %35 = load i8, ptr %34, align 1
  %36 = uitofp i8 %35 to float
  %37 = fmul float %29, %36
  %38 = fptoui float %37 to i8
  store i8 %38, ptr %34, align 1
  %39 = getelementptr inbounds nuw i8, ptr %21, i64 2
  %40 = load i8, ptr %39, align 1
  %41 = uitofp i8 %40 to float
  %42 = fmul float %29, %41
  %43 = fptoui float %42 to i8
  store i8 %43, ptr %39, align 1
  br label %44

44:                                               ; preds = %.lr.ph, %24, %27
  %indvars.iv.next = add nuw nsw i64 %indvars.iv, 1
  %45 = load i32, ptr %5, align 8
  %46 = load i32, ptr %9, align 4
  %47 = mul nsw i32 %46, %45
  %48 = sext i32 %47 to i64
  %49 = icmp slt i64 %indvars.iv.next, %48
  br i1 %49, label %.lr.ph, label %._crit_edge

50:                                               ; preds = %1, %4, %8, %._crit_edge
  ret void
}